target datalayout = "e-m:e-p270:32:32-p271:32:32-p272:64:64-i64:64-i128:128-f80:128-n8:16:32:64-S128"
target triple = "x86_64-pc-linux-gnu"

%struct.NFA = type { i32, i32, i8, i8, i8, i8, %union.anon, i32, i32, i32, i32, i32, i32, i32, [20 x i8] }
%union.anon = type { i16 }

; Function Attrs: nounwind uwtable
define hidden signext i8 @nfaBlockExecReverse(ptr noundef %0, i64 noundef %1, ptr noundef %2, i64 noundef %3, ptr noundef %4, i64 noundef %5, ptr noundef %6, ptr noundef %7) #0 {
  %9 = alloca i8, align 1
  %10 = alloca ptr, align 8
  %11 = alloca i64, align 8
  %12 = alloca ptr, align 8
  %13 = alloca i64, align 8
  %14 = alloca ptr, align 8
  %15 = alloca i64, align 8
  %16 = alloca ptr, align 8
  %17 = alloca ptr, align 8
  %18 = alloca i32, align 4
  %19 = alloca i32, align 4
  %20 = alloca i32, align 4
  %21 = alloca i32, align 4
  %22 = alloca i32, align 4
  %23 = alloca i32, align 4
  %24 = alloca i32, align 4
  %25 = alloca i32, align 4
  %26 = alloca i32, align 4
  %27 = alloca i32, align 4
  %28 = alloca i32, align 4
  %29 = alloca i32, align 4
  %30 = alloca i32, align 4
  %31 = alloca i32, align 4
  %32 = alloca i32, align 4
  %33 = alloca i32, align 4
  %34 = alloca i32, align 4
  %35 = alloca i32, align 4
  %36 = alloca i32, align 4
  store ptr %0, ptr %10, align 8
  store i64 %1, ptr %11, align 8
  store ptr %2, ptr %12, align 8
  store i64 %3, ptr %13, align 8
  store ptr %4, ptr %14, align 8
  store i64 %5, ptr %15, align 8
  store ptr %6, ptr %16, align 8
  store ptr %7, ptr %17, align 8
  %37 = load ptr, ptr %10, align 8
  %38 = getelementptr inbounds nuw %struct.NFA, ptr %37, i32 0, i32 2
  %39 = load i8, ptr %38, align 8
  %40 = zext i8 %39 to i32
  switch i32 %40, label %158 [
    i32 0, label %41
    i32 1, label %51
    i32 2, label %61
    i32 3, label %71
    i32 4, label %81
    i32 5, label %91
    i32 6, label %101
    i32 7, label %104
    i32 8, label %107
    i32 9, label %110
    i32 10, label %113
    i32 11, label %116
    i32 12, label %119
    i32 13, label %122
    i32 14, label %125
    i32 15, label %128
    i32 16, label %131
    i32 17, label %134
    i32 18, label %137
    i32 19, label %140
    i32 20, label %143
    i32 21, label %146
    i32 22, label %149
    i32 23, label %152
    i32 24, label %155
  ]

41:                                               ; preds = %8
  %42 = load ptr, ptr %10, align 8
  %43 = load i64, ptr %11, align 8
  %44 = load ptr, ptr %12, align 8
  %45 = load i64, ptr %13, align 8
  %46 = load ptr, ptr %14, align 8
  %47 = load i64, ptr %15, align 8
  %48 = load ptr, ptr %16, align 8
  %49 = load ptr, ptr %17, align 8
  %50 = call signext i8 @nfaExecLimEx32_B_Reverse(ptr noundef %42, i64 noundef %43, ptr noundef %44, i64 noundef %45, ptr noundef %46, i64 noundef %47, ptr noundef %48, ptr noundef %49)
  store i8 %50, ptr %9, align 1
  br label %160

51:                                               ; preds = %8
  %52 = load ptr, ptr %10, align 8
  %53 = load i64, ptr %11, align 8
  %54 = load ptr, ptr %12, align 8
  %55 = load i64, ptr %13, align 8
  %56 = load ptr, ptr %14, align 8
  %57 = load i64, ptr %15, align 8
  %58 = load ptr, ptr %16, align 8
  %59 = load ptr, ptr %17, align 8
  %60 = call signext i8 @nfaExecLimEx64_B_Reverse(ptr noundef %52, i64 noundef %53, ptr noundef %54, i64 noundef %55, ptr noundef %56, i64 noundef %57, ptr noundef %58, ptr noundef %59)
  store i8 %60, ptr %9, align 1
  br label %160

61:                                               ; preds = %8
  %62 = load ptr, ptr %10, align 8
  %63 = load i64, ptr %11, align 8
  %64 = load ptr, ptr %12, align 8
  %65 = load i64, ptr %13, align 8
  %66 = load ptr, ptr %14, align 8
  %67 = load i64, ptr %15, align 8
  %68 = load ptr, ptr %16, align 8
  %69 = load ptr, ptr %17, align 8
  %70 = call signext i8 @nfaExecLimEx128_B_Reverse(ptr noundef %62, i64 noundef %63, ptr noundef %64, i64 noundef %65, ptr noundef %66, i64 noundef %67, ptr noundef %68, ptr noundef %69)
  store i8 %70, ptr %9, align 1
  br label %160

71:                                               ; preds = %8
  %72 = load ptr, ptr %10, align 8
  %73 = load i64, ptr %11, align 8
  %74 = load ptr, ptr %12, align 8
  %75 = load i64, ptr %13, align 8
  %76 = load ptr, ptr %14, align 8
  %77 = load i64, ptr %15, align 8
  %78 = load ptr, ptr %16, align 8
  %79 = load ptr, ptr %17, align 8
  %80 = call signext i8 @nfaExecLimEx256_B_Reverse(ptr noundef %72, i64 noundef %73, ptr noundef %74, i64 noundef %75, ptr noundef %76, i64 noundef %77, ptr noundef %78, ptr noundef %79)
  store i8 %80, ptr %9, align 1
  br label %160

81:                                               ; preds = %8
  %82 = load ptr, ptr %10, align 8
  %83 = load i64, ptr %11, align 8
  %84 = load ptr, ptr %12, align 8
  %85 = load i64, ptr %13, align 8
  %86 = load ptr, ptr %14, align 8
  %87 = load i64, ptr %15, align 8
  %88 = load ptr, ptr %16, align 8
  %89 = load ptr, ptr %17, align 8
  %90 = call signext i8 @nfaExecLimEx384_B_Reverse(ptr noundef %82, i64 noundef %83, ptr noundef %84, i64 noundef %85, ptr noundef %86, i64 noundef %87, ptr noundef %88, ptr noundef %89)
  store i8 %90, ptr %9, align 1
  br label %160

91:                                               ; preds = %8
  %92 = load ptr, ptr %10, align 8
  %93 = load i64, ptr %11, align 8
  %94 = load ptr, ptr %12, align 8
  %95 = load i64, ptr %13, align 8
  %96 = load ptr, ptr %14, align 8
  %97 = load i64, ptr %15, align 8
  %98 = load ptr, ptr %16, align 8
  %99 = load ptr, ptr %17, align 8
  %100 = call signext i8 @nfaExecLimEx512_B_Reverse(ptr noundef %92, i64 noundef %93, ptr noundef %94, i64 noundef %95, ptr noundef %96, i64 noundef %97, ptr noundef %98, ptr noundef %99)
  store i8 %100, ptr %9, align 1
  br label %160

101:                                              ; preds = %8
  store i32 0, ptr %18, align 4
  %102 = load i32, ptr %18, align 4
  %103 = trunc i32 %102 to i8
  store i8 %103, ptr %9, align 1
  br label %160

104:                                              ; preds = %8
  store i32 0, ptr %19, align 4
  %105 = load i32, ptr %19, align 4
  %106 = trunc i32 %105 to i8
  store i8 %106, ptr %9, align 1
  br label %160

107:                                              ; preds = %8
  store i32 0, ptr %20, align 4
  %108 = load i32, ptr %20, align 4
  %109 = trunc i32 %108 to i8
  store i8 %109, ptr %9, align 1
  br label %160

110:                                              ; preds = %8
  store i32 0, ptr %21, align 4
  %111 = load i32, ptr %21, align 4
  %112 = trunc i32 %111 to i8
  store i8 %112, ptr %9, align 1
  br label %160

113:                                              ; preds = %8
  store i32 0, ptr %22, align 4
  %114 = load i32, ptr %22, align 4
  %115 = trunc i32 %114 to i8
  store i8 %115, ptr %9, align 1
  br label %160

116:                                              ; preds = %8
  store i32 0, ptr %23, align 4
  %117 = load i32, ptr %23, align 4
  %118 = trunc i32 %117 to i8
  store i8 %118, ptr %9, align 1
  br label %160

119:                                              ; preds = %8
  store i32 0, ptr %24, align 4
  %120 = load i32, ptr %24, align 4
  %121 = trunc i32 %120 to i8
  store i8 %121, ptr %9, align 1
  br label %160

122:                                              ; preds = %8
  store i32 0, ptr %25, align 4
  %123 = load i32, ptr %25, align 4
  %124 = trunc i32 %123 to i8
  store i8 %124, ptr %9, align 1
  br label %160

125:                                              ; preds = %8
  store i32 0, ptr %26, align 4
  %126 = load i32, ptr %26, align 4
  %127 = trunc i32 %126 to i8
  store i8 %127, ptr %9, align 1
  br label %160

128:                                              ; preds = %8
  store i32 0, ptr %27, align 4
  %129 = load i32, ptr %27, align 4
  %130 = trunc i32 %129 to i8
  store i8 %130, ptr %9, align 1
  br label %160

131:                                              ; preds = %8
  store i32 0, ptr %28, align 4
  %132 = load i32, ptr %28, align 4
  %133 = trunc i32 %132 to i8
  store i8 %133, ptr %9, align 1
  br label %160

134:                                              ; preds = %8
  store i32 0, ptr %29, align 4
  %135 = load i32, ptr %29, align 4
  %136 = trunc i32 %135 to i8
  store i8 %136, ptr %9, align 1
  br label %160

137:                                              ; preds = %8
  store i32 0, ptr %30, align 4
  %138 = load i32, ptr %30, align 4
  %139 = trunc i32 %138 to i8
  store i8 %139, ptr %9, align 1
  br label %160

140:                                              ; preds = %8
  store i32 0, ptr %31, align 4
  %141 = load i32, ptr %31, align 4
  %142 = trunc i32 %141 to i8
  store i8 %142, ptr %9, align 1
  br label %160

143:                                              ; preds = %8
  store i32 0, ptr %32, align 4
  %144 = load i32, ptr %32, align 4
  %145 = trunc i32 %144 to i8
  store i8 %145, ptr %9, align 1
  br label %160

146:                                              ; preds = %8
  store i32 0, ptr %33, align 4
  %147 = load i32, ptr %33, align 4
  %148 = trunc i32 %147 to i8
  store i8 %148, ptr %9, align 1
  br label %160

149:                                              ; preds = %8
  store i32 0, ptr %34, align 4
  %150 = load i32, ptr %34, align 4
  %151 = trunc i32 %150 to i8
  store i8 %151, ptr %9, align 1
  br label %160

152:                                              ; preds = %8
  store i32 0, ptr %35, align 4
  %153 = load i32, ptr %35, align 4
  %154 = trunc i32 %153 to i8
  store i8 %154, ptr %9, align 1
  br label %160

155:                                              ; preds = %8
  store i32 0, ptr %36, align 4
  %156 = load i32, ptr %36, align 4
  %157 = trunc i32 %156 to i8
  store i8 %157, ptr %9, align 1
  br label %160

158:                                              ; preds = %8
  br label %159

159:                                              ; preds = %158
  store i8 0, ptr %9, align 1
  br label %160

160:                                              ; preds = %159, %155, %152, %149, %146, %143, %140, %137, %134, %131, %128, %125, %122, %119, %116, %113, %110, %107, %104, %101, %91, %81, %71, %61, %51, %41
  %161 = load i8, ptr %9, align 1
  ret i8 %161
}