; Function Attrs: nounwind uwtable
define hidden signext i8 @nfaBlockExecReverse(ptr noundef %0, i64 noundef %1, ptr noundef %2, i64 noundef %3, ptr noundef %4, i64 noundef %5, ptr noundef %6, ptr noundef %7) local_unnamed_addr #0 {
  %9 = getelementptr inbounds nuw i8, ptr %0, i64 8
  %10 = load i8, ptr %9, align 8
  switch i8 %10, label %23 [
    i8 0, label %11
    i8 1, label %13
    i8 2, label %15
    i8 3, label %17
    i8 4, label %19
    i8 5, label %21
  ]

11:                                               ; preds = %8
  %12 = tail call signext i8 @nfaExecLimEx32_B_Reverse(ptr noundef nonnull %0, i64 noundef %1, ptr noundef %2, i64 noundef %3, ptr noundef %4, i64 noundef %5, ptr noundef %6, ptr noundef %7) #3
  br label %23

13:                                               ; preds = %8
  %14 = tail call signext i8 @nfaExecLimEx64_B_Reverse(ptr noundef nonnull %0, i64 noundef %1, ptr noundef %2, i64 noundef %3, ptr noundef %4, i64 noundef %5, ptr noundef %6, ptr noundef %7) #3
  br label %23

15:                                               ; preds = %8
  %16 = tail call signext i8 @nfaExecLimEx128_B_Reverse(ptr noundef nonnull %0, i64 noundef %1, ptr noundef %2, i64 noundef %3, ptr noundef %4, i64 noundef %5, ptr noundef %6, ptr noundef %7) #3
  br label %23

17:                                               ; preds = %8
  %18 = tail call signext i8 @nfaExecLimEx256_B_Reverse(ptr noundef nonnull %0, i64 noundef %1, ptr noundef %2, i64 noundef %3, ptr noundef %4, i64 noundef %5, ptr noundef %6, ptr noundef %7) #3
  br label %23

19:                                               ; preds = %8
  %20 = tail call signext i8 @nfaExecLimEx384_B_Reverse(ptr noundef nonnull %0, i64 noundef %1, ptr noundef %2, i64 noundef %3, ptr noundef %4, i64 noundef %5, ptr noundef %6, ptr noundef %7) #3
  br label %23

21:                                               ; preds = %8
  %22 = tail call signext i8 @nfaExecLimEx512_B_Reverse(ptr noundef nonnull %0, i64 noundef %1, ptr noundef %2, i64 noundef %3, ptr noundef %4, i64 noundef %5, ptr noundef %6, ptr noundef %7) #3
  br label %23

23:                                               ; preds = %8, %21, %19, %17, %15, %13, %11
  %.0 = phi i8 [ %22, %21 ], [ %20, %19 ], [ %18, %17 ], [ %16, %15 ], [ %14, %13 ], [ %12, %11 ], [ 0, %8 ]
  ret i8 %.0
}